; Function Attrs: nounwind uwtable
define hidden void @zim_SplHeap_extract(ptr noundef %0, ptr noundef %1) #0 {
  %3 = getelementptr inbounds i8, ptr %0, i64 32
  %4 = getelementptr inbounds i8, ptr %0, i64 44
  %5 = load i32, ptr %4, align 4
  %.not = icmp eq i32 %5, 0
  br i1 %.not, label %.critedge, label %6

6:                                                ; preds = %2
  tail call void @zend_wrong_parameters_none_error() #14
  br label %.sink.split

.critedge:                                        ; preds = %2
  %7 = load ptr, ptr %3, align 8
  %8 = getelementptr inbounds i8, ptr %7, i64 -32
  %9 = load ptr, ptr %8, align 8
  %10 = getelementptr inbounds i8, ptr %9, i64 36
  %11 = load i32, ptr %10, align 4
  %12 = and i32 %11, 1
  %.not6 = icmp eq i32 %12, 0
  br i1 %.not6, label %16, label %13

13:                                               ; preds = %.critedge
  %14 = load ptr, ptr @spl_ce_RuntimeException, align 8
  %15 = tail call ptr @zend_throw_exception(ptr noundef %14, ptr noundef nonnull @.str, i64 noundef 0) #14
  br label %.sink.split

16:                                               ; preds = %.critedge
  %17 = tail call fastcc i32 @spl_ptr_heap_delete_top(ptr noundef nonnull %9, ptr noundef %1, ptr noundef nonnull %3), !range !4
  %18 = icmp eq i32 %17, -1
  br i1 %18, label %19, label %24

19:                                               ; preds = %16
  %20 = load ptr, ptr @spl_ce_RuntimeException, align 8
  %21 = tail call ptr @zend_throw_exception(ptr noundef %20, ptr noundef nonnull @.str.1, i64 noundef 0) #14
  br label %.sink.split

.sink.split:                                      ; preds = %6, %13, %19
  %22 = load ptr, ptr getelementptr inbounds (%struct._zend_executor_globals, ptr @executor_globals, i64 0, i32 50), align 8
  %23 = icmp ne ptr %22, null
  tail call void @llvm.assume(i1 %23)
  br label %24

24:                                               ; preds = %.sink.split, %16
  ret void
}